; Function Attrs: nounwind sspstrong uwtable
define internal i64 @ary_enum_length(i64 noundef %0, i64 %1, i64 %2) #4 {
  %4 = inttoptr i64 %0 to ptr
  %5 = load i64, ptr %4, align 8, !tbaa !7
  %6 = and i64 %5, 8192
  %.not.i.i = icmp eq i64 %6, 0
  br i1 %.not.i.i, label %10, label %7

7:                                                ; preds = %3
  %8 = lshr i64 %5, 15
  %9 = and i64 %8, 127
  br label %rb_array_len.exit.i

10:                                               ; preds = %3
  %11 = getelementptr inbounds nuw i8, ptr %4, i64 16
  %12 = load i64, ptr %11, align 8, !tbaa !12
  br label %rb_array_len.exit.i

rb_array_len.exit.i:                              ; preds = %10, %7
  %.0.i.i = phi i64 [ %9, %7 ], [ %12, %10 ]
  %13 = add i64 %.0.i.i, 4611686018427387904
  %or.cond.i.i = icmp sgt i64 %13, -1
  br i1 %or.cond.i.i, label %14, label %17

14:                                               ; preds = %rb_array_len.exit.i
  %15 = shl nsw i64 %.0.i.i, 1
  %16 = or disjoint i64 %15, 1
  br label %rb_ary_length.exit

17:                                               ; preds = %rb_array_len.exit.i
  %18 = tail call i64 @rb_int2big(i64 noundef %.0.i.i) #24
  br label %rb_ary_length.exit

rb_ary_length.exit:                               ; preds = %14, %17
  %.0.i2.i = phi i64 [ %16, %14 ], [ %18, %17 ]
  ret i64 %.0.i2.i
}